; Function Attrs: mustprogress nounwind uwtable
define hidden noundef zeroext i1 @_ZNK19OpenColorIO_v2_5dev10OpRcPtrVec6isNoOpEv(ptr noundef nonnull readonly align 8 captures(none) dereferenceable(144) %0) local_unnamed_addr #8 align 2 personality ptr @__gxx_personality_v0 {
  %2 = load ptr, ptr %0, align 8, !tbaa !202
  %3 = getelementptr inbounds nuw i8, ptr %0, i64 8
  %4 = load ptr, ptr %3, align 8, !tbaa !202
  %.not12 = icmp eq ptr %2, %4
  br i1 %.not12, label %._crit_edge, label %.lr.ph

.lr.ph:                                           ; preds = %1, %10
  %.sroa.08.013 = phi ptr [ %11, %10 ], [ %2, %1 ]
  %5 = load ptr, ptr %.sroa.08.013, align 8, !tbaa !59
  %6 = load ptr, ptr %5, align 8, !tbaa !3
  %7 = getelementptr inbounds nuw i8, ptr %6, i64 40
  %8 = load ptr, ptr %7, align 8
  %9 = invoke noundef zeroext i1 %8(ptr noundef nonnull align 8 dereferenceable(24) %5)
          to label %10 unwind label %12

10:                                               ; preds = %.lr.ph
  %11 = getelementptr inbounds nuw i8, ptr %.sroa.08.013, i64 16
  %.not = icmp ne ptr %11, %4
  %or.cond.not = select i1 %9, i1 %.not, i1 false
  br i1 %or.cond.not, label %.lr.ph, label %._crit_edge

._crit_edge:                                      ; preds = %10, %1
  %.not.lcssa = phi i1 [ true, %1 ], [ %9, %10 ]
  ret i1 %.not.lcssa

12:                                               ; preds = %.lr.ph
  %13 = landingpad { ptr, i32 }
          catch ptr null
  %14 = extractvalue { ptr, i32 } %13, 0
  tail call void @__clang_call_terminate(ptr %14) #30
  unreachable
}